(lp0
(F0.0
F0.00015926638859299798
F0.001923549250341008
F-0.002581193308412189
tp1
a(F0.5035531520843506
F0.0008502453293535491
F0.0020665255956045167
F-0.07575535843708733
tp2
a(F1.0067009925842285
F0.004559472618310877
F0.001213022555110061
F-0.46575517834289204
tp3
a(F1.511829137802124
F0.00820548471904512
F-0.0019909955700075158
F-0.9762139282300194
tp4
a(F2.0170681476593018
F0.009713387168043243
F-0.006624881960115165
F-1.4292411008185228
tp5
a(F2.5215649604797363
F0.00990156009468092
F-0.04674065350406352
F-1.6155619131401786
tp6
a(F3.0256540775299072
F0.005961071620722739
F-0.14255304379664896
F-1.609777568214992
tp7
a(F3.5300040245056152
F0.0018739767738884443
F-0.24273584529889608
F-1.6131954056756952
tp8
a(F4.035083055496216
F-0.0021620528000797852
F-0.3358133255684648
F-1.6169846986979117
tp9
a(F4.540197134017944
F-0.004212798461119681
F-0.37936034452536
F-1.6198767493295916
tp10
a(F5.04381799697876
F-0.005949488401559105
F-0.41574435880591165
F-1.6183365859398775
tp11
a(F5.547765016555786
F-0.01018733219598782
F-0.503342682896299
F-1.6210297708569084
tp12
a(F6.051568984985352
F-0.01362637476188715
F-0.5702499215880769
F-1.6049591701190564
tp13
a(F6.555264949798584
F-0.01013879263897171
F-0.6575038615164158
F-1.414959377448602
tp14
a(F7.059507131576538
F0.016343916668541507
F-0.7521386732412363
F-1.1158845807479483
tp15
a(F7.564578056335449
F0.06854127829444809
F-0.833457884862095
F-0.9192362930718755
tp16
a(F8.068253993988037
F0.12843710707329015
F-0.912073677425881
F-0.9524677398437218
tp17
a(F8.572561025619507
F0.1815474014159345
F-0.9983577915870067
F-1.070126486659326
tp18
a(F9.0763680934906
F0.22998969981148162
F-1.0861074346685171
F-1.069507433972803
tp19
a(F9.58094310760498
F0.27511601231308846
F-1.1794576115905373
F-1.2277939737938395
tp20
a(F10.084944009780884
F0.29674587639697575
F-1.2819026659277448
F-1.592369120341131
tp21
a(F10.606122016906738
F0.2696137364207587
F-1.3856543174173135
F-2.0868249492424185
tp22
a(F11.11016297340393
F0.21061202850214578
F-1.4630541914214845
F-2.3336172360626173
tp23
a(F11.614593982696533
F0.14074823391090333
F-1.5355018151841802
F-2.3326937063552373
tp24
a(F12.119261980056763
F0.06997920088928859
F-1.6094238554463878
F-2.336424009354063
tp25
a(F12.623659133911133
F0.0037863416333355536
F-1.6780414155091112
F-2.3398295887157627
tp26
a(F13.128196954727173
F-0.06745387875925145
F-1.751520874619524
F-2.3424626837540474
tp27
a(F13.631868124008179
F-0.13747191368283418
F-1.8233571216976725
F-2.344955107057415
tp28
a(F14.136821985244751
F-0.20766866449317867
F-1.8950170808794229
F-2.347459099174435
tp29
a(F14.642240047454834
F-0.2794532079845403
F-1.967930400001272
F-2.350007194472591
tp30
a(F15.146093130111694
F-0.35000949964933886
F-2.0392361950487565
F-2.352511377061021
tp31
a(F15.650352001190186
F-0.4221603449137272
F-2.111786119596524
F-2.355054019422217
tp32
a(F16.15541696548462
F-0.49307603964850966
F-2.1827355592711664
F-2.3575539806321393
tp33
a(F16.65933394432068
F-0.5641687810379398
F-2.253506138182294
F-2.360056416618799
tp34
a(F17.163597106933594
F-0.6368632973084953
F-2.325511791083646
F-2.3626024548722873
tp35
a(F17.668741941452026
F-0.7025141940560122
F-2.390199694089966
F-2.366025157365293
tp36
a(F18.175436973571777
F-0.7322809322561146
F-2.4193557721287577
F-2.3969769540312997
tp37
a(F18.67958092689514
F-0.7349270376683703
F-2.421449105514997
F-2.599469633090836
tp38
a(F19.183611154556274
F-0.7385463303746013
F-2.4230380474643276
F-2.987773279585875
tp39
a(F19.68822193145752
F-0.7432912454926558
F-2.4225678047649097
F2.794549396567967
tp40
a(F20.192543983459473
F-0.7488241366213471
F-2.418297161842903
F2.2985217414299237
tp41
a(F20.698832988739014
F-0.7701661343691262
F-2.3834129268081163
F1.9870083655845823
tp42
a(F21.20314598083496
F-0.7954328243691785
F-2.318602154588992
F1.9415799829442675
tp43
a(F21.707932949066162
F-0.8296573086706382
F-2.2304536146317453
F1.9165426417880103
tp44
a(F22.21273708343506
F-0.8436355462948488
F-2.1815052174229734
F1.7200662960361512
tp45
a(F22.71793794631958
F-0.849294645386705
F-2.1345487715119993
F1.6973103030847063
tp46
a(F23.222373008728027
F-0.8587509404350372
F-2.0599012629604903
F1.6966201707224946
tp47
a(F23.726356983184814
F-0.871365565998585
F-1.9595220378804166
F1.6936690619992913
tp48
a(F24.230457067489624
F-0.8837093422034158
F-1.8589861200716813
F1.68810427330693
tp49
a(F24.734384059906006
F-0.888916840026237
F-1.7932084764954275
F1.5312627892628008
tp50
a(F25.238908052444458
F-0.8876737207891062
F-1.7798014022446609
F1.2498919625506102
tp51
a(F25.74274706840515
F-0.8851593430871733
F-1.7759410290097606
F0.7465157335699848
tp52
a(F26.247334003448486
F-0.8811082612057056
F-1.773753990532683
F0.24347964742420422
tp53
a(F26.75126600265503
F-0.876644215461292
F-1.7737715773591647
F-0.2502253319291954
tp54
a(F27.255285024642944
F-0.8726586591848136
F-1.7759371605586
F-0.7443535702439047
tp55
a(F27.760353088378906
F-0.8681663648391461
F-1.7841072413981969
F-1.2218275436524177
tp56
a(F28.264408111572266
F-0.859777066232686
F-1.825808128744782
F-1.4980979458646826
tp57
a(F28.76946210861206
F-0.855183776330164
F-1.9100298651261962
F-1.513203598540072
tp58
a(F29.274587154388428
F-0.849426584342123
F-2.0121281497782473
F-1.5166849269335134
tp59
a(F29.7780499458313
F-0.8440818658173215
F-2.112296544664742
F-1.5190977322170214
tp60
a(F30.281840085983276
F-0.8388893212268348
F-2.2144842502934003
F-1.5216448073313225
tp61
a(F30.78705096244812
F-0.834052014863104
F-2.314680634756007
F-1.524149424763509
tp62
a(F31.29088306427002
F-0.8294635760858456
F-2.4148894355723765
F-1.526648468899176
tp63
a(F31.794826984405518
F-0.8250421253779255
F-2.517113873425612
F-1.5291977706414852
tp64
a(F32.29833793640137
F-0.8209610317668581
F-2.6173437825963335
F-1.5316902074158774
tp65
a(F32.802510023117065
F-0.8170554204331457
F-2.71958905806702
F-1.534240728732638
tp66
a(F33.30838203430176
F-0.8134767112306374
F-2.8198385699252477
F-1.5367459066970532
tp67
a(F33.81258511543274
F-0.8078202493660593
F-2.918961640678793
F-1.4343517972927138
tp68
a(F34.31880712509155
F-0.7850454847274543
F-3.010773038984471
F-1.1852659490201995
tp69
a(F34.8223180770874
F-0.7367121544590908
F-3.0975384787440503
F-0.9744890875154678
tp70
a(F35.326509952545166
F-0.6818449212707853
F-3.177011203280042
F-0.9718214121000908
tp71
a(F35.83037805557251
F-0.6253953229388448
F-3.259862247405673
F-0.9739281510768942
tp72
a(F36.33526611328125
F-0.5679683776778702
F-3.344547693111998
F-0.9765434621275769
tp73
a(F36.84082007408142
F-0.5118788959256724
F-3.4277141560602367
F-0.9790458962845753
tp74
a(F37.3448691368103
F-0.45599364295765077
F-3.511019052276446
F-0.9815469165355196
tp75
a(F37.8495409488678
F-0.41292061592774837
F-3.5787502183844597
F-1.076672816658092
tp76
a(F38.35350298881531
F-0.3707918681278164
F-3.664444829820877
F-1.1179665959295775
tp77
a(F38.85796308517456
F-0.32854229722828443
F-3.751092149535416
F-1.119115361095694
tp78
a(F39.36187195777893
F-0.2913947696764558
F-3.829485277867653
F-1.1862405912699072
tp79
a(F39.86754012107849
F-0.28071839782123986
F-3.8632862115406437
F-1.4107334907747617
tp80
a(F40.3724639415741
F-0.2775590483085975
F-3.9052799039913415
F-1.5228261949010464
tp81
a(F40.87663006782532
F-0.27386735151128916
F-3.975095217225106
F-1.5168301935124584
tp82
a(F41.38143014907837
F-0.26859518943223065
F-4.076058293473195
F-1.5206991970300072
tp83
a(F41.885668992996216
F-0.2635540930235644
F-4.178263945794517
F-1.523147412939146
tp84
a(F42.39001798629761
F-0.25877591547479817
F-4.280472500300771
F-1.5256954341845712
tp85
a(F42.8947479724884
F-0.2543430371817766
F-4.380688267097899
F-1.5281952491788744
tp86
a(F43.40097403526306
F-0.2504110362045319
F-4.474970047665003
F-1.5307591166043342
tp87
a.