(lp0
(F0.0
F-0.003038606651722969
F0.023442016753644105
F-0.027171723344419803
tp1
a(F0.5047369003295898
F-0.044955333480248355
F0.024610195467994117
F-0.024240574241517848
tp2
a(F1.008594036102295
F-0.13651122736973698
F0.026879757018555762
F-0.026506869501462634
tp3
a(F1.5120248794555664
F-0.32561117580808513
F0.03188832428718118
F-0.02523729771886833
tp4
a(F2.0155088901519775
F-0.6033122614089292
F0.038588658863343304
F-0.02171756512141847
tp5
a(F2.5188488960266113
F-0.9188471750564269
F0.04425207364063282
F-0.013109509796302656
tp6
a(F3.0239200592041016
F-1.2400859934114459
F0.04701787601910278
F0.009520274107660378
tp7
a(F3.5281100273132324
F-1.554912089600008
F0.031227476938826895
F0.07475046124378315
tp8
a(F4.032360076904297
F-1.8644399002900425
F0.007998102776563732
F0.07772371698083774
tp9
a(F4.53685188293457
F-2.1845646477250016
F-0.01817629080400012
F0.08620408933796728
tp10
a(F5.0419299602508545
F-2.4981204077167027
F-0.04635068236174014
F0.09406589379303751
tp11
a(F5.546410083770752
F-2.8114379158294547
F-0.07699492296507701
F0.10190389709441873
tp12
a(F6.050589084625244
F-3.1307656447965573
F-0.11078621642720235
F0.10993072864747627
tp13
a(F6.555418968200684
F-3.411882458861898
F-0.13087264055690512
F0.10934938398093341
tp14
a(F7.059997081756592
F-3.482616054753259
F-0.13053456363020982
F0.0831504956552586
tp15
a(F7.563152074813843
F-3.481764196612341
F-0.13050762320662934
F0.08268279006439802
tp16
a(F8.06867504119873
F-3.464481496016665
F-0.12903921264335672
F0.08396251547319884
tp17
a(F8.572962999343872
F-3.4152512403312376
F-0.12488765000702945
F0.08504318745356113
tp18
a(F9.079493045806885
F-3.2911548492846325
F-0.11413166337729032
F0.0862163195529716
tp19
a(F9.583246946334839
F-3.077065937409647
F-0.09572576827994733
F0.08426699244150579
tp20
a(F10.087460041046143
F-2.8283382139013535
F-0.07148861885691711
F0.15847102895032356
tp21
a(F10.59154200553894
F-2.626866754314741
F-0.01940360697494251
F0.34776830052446794
tp22
a(F11.096548080444336
F-2.4276470876194165
F0.07743269900609057
F0.6177040087447215
tp23
a(F11.600963115692139
F-2.2424028831706684
F0.26768206062348915
F1.0635841288022712
tp24
a(F12.10563588142395
F-2.1566833519551314
F0.5624472534471692
F1.4931573829979554
tp25
a(F12.61369800567627
F-2.181163480833617
F0.8702160442600659
F1.894383025131633
tp26
a(F13.1194748878479
F-2.3474315269595905
F1.1449695328411997
F2.3070745879691392
tp27
a(F13.623816013336182
F-2.571509748429187
F1.3567072468762378
F2.4134519791861715
tp28
a(F14.127969026565552
F-2.8047225803877556
F1.5684458442864433
F2.398604615311857
tp29
a(F14.632258892059326
F-3.0407594057271914
F1.7858961728854665
F2.4133059136311847
tp30
a(F15.136882066726685
F-3.285330007052436
F1.9727987438941348
F2.606538561913618
tp31
a(F15.64146089553833
F-3.5765009671586157
F2.0973090911628622
F2.910987735927162
tp32
a(F16.148624897003174
F-3.881029366352088
F2.146206326257262
F3.0152207430451305
tp33
a(F16.653194904327393
F-4.19985131208004
F2.1890648797183414
F3.0012364450959694
tp34
a(F17.158329963684082
F-4.51139331686007
F2.225849971920541
F3.1006030528961515
tp35
a(F17.662930965423584
F-4.823713370681574
F2.207234523292901
F-2.9324089944022305
tp36
a(F18.1702139377594
F-5.111840359554647
F2.0924748307441297
F-2.6062758165957822
tp37
a(F18.674468994140625
F-5.3694211172488195
F1.9209965417883998
F-2.5441266815050314
tp38
a(F19.17922306060791
F-5.6362601514043
F1.74221881675743
F-2.555759260270024
tp39
a(F19.6837739944458
F-5.898894926441049
F1.5688779361552334
F-2.5486141629023966
tp40
a(F20.18857192993164
F-6.147620511037958
F1.3753834438832115
F-2.3619488644058
tp41
a(F20.69332504272461
F-6.350030580341438
F1.1377844657411211
F-2.210911900591467
tp42
a(F21.197593927383423
F-6.540145158891301
F0.884136917086778
F-2.2222719857580024
tp43
a(F21.70221996307373
F-6.7250295173890455
F0.6305239586161255
F-2.1242602734463882
tp44
a(F22.206300973892212
F-6.859796151358706
F0.3546407854178547
F-1.8774578757659612
tp45
a(F22.710455894470215
F-6.878411673487532
F0.04350174031687055
F-1.3198064382852115
tp46
a(F23.214513063430786
F-6.7513476921966245
F-0.23270564695762355
F-0.9883074284966251
tp47
a(F23.71935510635376
F-6.572687713880269
F-0.4924874637468334
F-0.9795498212529379
tp48
a(F24.223126888275146
F-6.394640824017204
F-0.7597147867742063
F-0.9864920919469137
tp49
a(F24.72770094871521
F-6.218457333865967
F-1.0281869408892
F-0.9945038203106036
tp50
a(F25.23214888572693
F-6.051186201435772
F-1.2874318728076468
F-1.0020665213039455
tp51
a(F25.73674488067627
F-5.879175437056464
F-1.5585910703998942
F-1.0099220612636526
tp52
a(F26.243047952651978
F-5.7093046334454565
F-1.8310960002009085
F-1.0177794768470187
tp53
a(F26.746848106384277
F-5.544848006326397
F-2.0995454767168735
F-1.0254929223010623
tp54
a(F27.25183391571045
F-5.379235121470052
F-2.374661416093107
F-1.0333613675894195
tp55
a(F27.755785942077637
F-5.218978701027208
F-2.645639067482787
F-1.0410634072316245
tp56
a(F28.260149002075195
F-5.0608171683747045
F-2.9178442834769722
F-1.0487674451356064
tp57
a(F28.765427112579346
F-4.901654783033774
F-3.196741282668635
F-1.0566436665522556
tp58
a(F29.27031898498535
F-4.7477479788704064
F-3.4713758264397345
F-1.064346836914563
tp59
a(F29.774703979492188
F-4.595496111564089
F-3.74667131484296
F-1.047516195635113
tp60
a(F30.27846598625183
F-4.418912427549118
F-4.004753751774347
F-0.8550427532421653
tp61
a(F30.78218388557434
F-4.19047701922764
F-4.216594967709426
F-0.6374607562503307
tp62
a(F31.287580013275146
F-3.9390651508976404
F-4.397299907563631
F-0.6311348346496046
tp63
a(F31.79210901260376
F-3.680116421219301
F-4.587875267679506
F-0.6384314552493485
tp64
a(F32.296359062194824
F-3.427943325045266
F-4.77634821910763
F-0.6461725318169058
tp65
a(F32.804378032684326
F-3.172232443136276
F-4.9705827991689375
F-0.6540302713675721
tp66
a(F33.30847096443176
F-2.923027904613734
F-5.1629577571566845
F-0.6616746579623513
tp67
a(F33.813196897506714
F-2.665933954178884
F-5.353374289648018
F-0.5567720622963378
tp68
a(F34.320931911468506
F-2.391008740414316
F-5.489473002339253
F-0.33312477219235487
tp69
a(F34.82552409172058
F-2.082629400052676
F-5.568397417061043
F-0.20724472071599764
tp70
a(F35.33155798912048
F-1.7787019812045277
F-5.634087929525993
F-0.21942853740768992
tp71
a(F35.83672308921814
F-1.4717148458499056
F-5.703582400426789
F-0.22687183710876843
tp72
a(F36.34019994735718
F-1.1593144958647457
F-5.776838325637864
F-0.23480432707314916
tp73
a(F36.84578800201416
F-0.8773425125566436
F-5.8457771017783084
F-0.24550955235862068
tp74
a(F37.34991502761841
F-0.6565165930448023
F-5.8970439838769995
F-0.2532433994459357
tp75
a(F37.85411500930786
F-0.608175266947498
F-5.895102061774086
F-0.24204883623127446
tp76
a(F38.35877299308777
F-0.6082266647327653
F-5.895027529791518
F-0.26075447592662193
tp77
a(F38.86288905143738
F-0.6063326565580072
F-5.895710768376976
F-0.4556171652328425
tp78
a(F39.36742401123047
F-0.6031020411499962
F-5.89777981165601
F-0.8804630476848592
tp79
a(F39.8722140789032
F-0.6008178099859706
F-5.905114540375301
F-1.7645951596034704
tp80
a(F40.37626004219055
F-0.6068049369997461
F-5.9110733987888615
F-3.068644785451213
tp81
a(F40.88096499443054
F-0.6140019946431307
F-5.902159227589664
F1.7176530601979518
tp82
a(F41.38564109802246
F-0.5950608377542835
F-5.863550719931679
F0.4581223774479227
tp83
a(F41.8899450302124
F-0.5098825918928758
F-5.868846751074307
F-0.4868552044353813
tp84
a(F42.39414310455322
F-0.4549726538430164
F-5.921086081108808
F-1.1162834339103105
tp85
a(F42.89824104309082
F-0.4506282564831092
F-5.934506570753175
F-1.415402882510497
tp86
a(F43.40336608886719
F-0.4452426249876789
F-5.9668644899164285
F-1.4055116896207192
tp87
a(F43.909038066864014
F-0.4343595499716349
F-6.032584407734557
F-1.405441306619402
tp88
a(F44.413187980651855
F-0.41019224860507086
F-6.176183898563888
F-1.3909939520618142
tp89
a(F44.91823196411133
F-0.38386127820602334
F-6.281786011155201
F-1.2009338712495827
tp90
a(F45.42270302772522
F-0.3333124272998313
F-6.385121630470016
F-1.006607599028875
tp91
a(F45.92763710021973
F-0.23767196048607717
F-6.495974627920494
F-0.6752332782402708
tp92
a(F46.43286895751953
F-0.03878486468711748
F-6.582854301826267
F-0.03367986567553391
tp93
a(F46.93866205215454
F0.23495560187291348
F-6.499726764816716
F0.6117090677241456
tp94
a(F47.443394899368286
F0.45755690256775317
F-6.279439188898212
F0.8734201273605184
tp95
a(F47.94920206069946
F0.6611539186010275
F-6.039310553667291
F0.8603920168713403
tp96
a(F48.45435190200806
F0.854133279040288
F-5.794224486772465
F1.0103343347284481
tp97
a(F48.95880699157715
F0.9878515012603356
F-5.517621741889447
F1.328373939958941
tp98
a(F49.46498203277588
F0.9640851075004964
F-5.211422183327449
F2.119536566269468
tp99
a(F49.97274589538574
F0.7127105891733552
F-5.0472409517763355
F-3.0978068015966405
tp100
a(F50.477121114730835
F0.4827582554726108
F-5.149055451738206
F-2.1571867718003905
tp101
a(F50.981465101242065
F0.4042465324047772
F-5.446599216106369
F-1.511300738129454
tp102
a(F51.486428022384644
F0.48138858294916437
F-5.749114019256765
F-1.1864551935251717
tp103
a(F51.99121594429016
F0.594261716029538
F-6.043618491867693
F-1.3097639924067195
tp104
a(F52.49563407897949
F0.6283642439117539
F-6.349325109081136
F-1.6618728552717554
tp105
a(F52.99935698509216
F0.5630101506953208
F-6.645805843069152
F-1.9655874346483568
tp106
a(F53.5038800239563
F0.4027490416422673
F-6.893771321911786
F-2.336397864763381
tp107
a(F54.00803089141846
F0.149606885740784
F-7.08004932022179
F-2.784404858292138
tp108
a(F54.51224493980408
F-0.15889968773359284
F-7.09819656128209
F2.772395353642791
tp109
a(F55.01622700691223
F-0.37596089617055867
F-6.884090889026368
F1.7856063672602334
tp110
a(F55.520792961120605
F-0.3447315879644326
F-6.609363179532441
F0.5569277403518583
tp111
a(F56.0251350402832
F-0.071568606237634
F-6.559291672921435
F-0.55906342385818
tp112
a(F56.52874302864075
F0.10419790785289842
F-6.7649960127599815
F-1.3284085785209114
tp113
a(F57.03347206115723
F0.10158359725539351
F-7.0137143647860505
F-1.8455920133650783
tp114
a(F57.53797006607056
F0.022730224739152458
F-7.193163709595468
F-2.118290769385418
tp115
a(F58.04360008239746
F-0.05898123815335608
F-7.31661237638087
F-2.1635776797456967
tp116
a(F58.547991037368774
F-0.11115465372646947
F-7.3940131669093665
F-2.1682978900420995
tp117
a(F59.05195093154907
F-0.13606507821852756
F-7.430559508533983
F-2.1710838926345084
tp118
a(F59.555763959884644
F-0.137935465152292
F-7.433326744668482
F-2.1717634344007752
tp119
a(F60.059662103652954
F-0.1379523220162501
F-7.433387649030482
F-2.1717295692187095
tp120
a(F60.564692974090576
F-0.13793513413785427
F-7.433403140801358
F-2.171744077600387
tp121
a(F61.06893992424011
F-0.13791791339265796
F-7.433417889203417
F-2.1717700019484054
tp122
a(F61.5742449760437
F-0.13790014393639974
F-7.433433039062644
F-2.171795423561315
tp123
a(F62.0788140296936
F-0.13788381257749244
F-7.433447222956228
F-2.1718198363646413
tp124
a(F62.58369207382202
F-0.13786688050291646
F-7.433461860275874
F-2.1718448595422326
tp125
a(F63.08797001838684
F-0.14485507115447085
F-7.443685493452526
F-2.171874037683232
tp126
a(F63.59683394432068
F-0.1693641969116208
F-7.479450073889104
F-2.1724309732983897
tp127
a(F64.1011118888855
F-0.23242849867874196
F-7.571717376457394
F-2.1689808494845506
tp128
a(F64.60533690452576
F-0.34132975679834593
F-7.731660629384592
F-2.1705053182744636
tp129
a(F65.1102499961853
F-0.46067521104680775
F-7.905250585607094
F-2.1761109635042426
tp130
a(F65.61369705200195
F-0.5786252226352978
F-8.074883306441436
F-2.18870066959353
tp131
a(F66.11901593208313
F-0.7139940619961771
F-8.237974079897059
F-2.426950467785947
tp132
a(F66.62353301048279
F-0.8939767663004463
F-8.338186294754339
F-2.939311287438763
tp133
a(F67.12726998329163
F-1.0974068992342954
F-8.327417286990414
F2.7468443667377636
tp134
a(F67.6313591003418
F-1.2568684926041742
F-8.196473919249081
F2.1463446339809362
tp135
a(F68.1360809803009
F-1.335826148057066
F-8.005384535854118
F1.7953797479072768
tp136
a(F68.64021301269531
F-1.375649533384122
F-7.802392848389684
F1.7800837980236353
tp137
a(F69.14512991905212
F-1.4232329258112062
F-7.604976089313718
F1.8580806889976076
tp138
a(F69.64950895309448
F-1.502383199965186
F-7.418397662982219
F2.1815014190551523
tp139
a(F70.15431904792786
F-1.6541272488341776
F-7.291777403813688
F2.802600350033315
tp140
a(F70.6597580909729
F-1.8577644776352396
F-7.270219140117881
F-3.0415745140455006
tp141
a(F71.1634349822998
F-2.0631524501285483
F-7.309081532867802
F-2.9065667645765805
tp142
a(F71.66757488250732
F-2.26429192840969
F-7.356394104442959
F-2.9165894920542366
tp143
a(F72.17113208770752
F-2.463139213086111
F-7.40154101886917
F-2.9216618144319346
tp144
a(F72.67531991004944
F-2.614162120583142
F-7.434799264237401
F-2.9294181421391308
tp145
a(F73.17921495437622
F-2.699135998881922
F-7.452899285498686
F-2.93467556624745
tp146
a(F73.68359208106995
F-2.714858386145566
F-7.456200092968627
F-2.9370883383924173
tp147
a(F74.18823099136353
F-2.720049724598504
F-7.457302631539044
F-2.935031526362524
tp148
a(F74.69180488586426
F-2.759960447939926
F-7.465731574555826
F-2.9353210061786807
tp149
a(F75.19596290588379
F-2.843445135714383
F-7.483368446957509
F-2.9319634707589985
tp150
a(F75.6996910572052
F-3.0222029007081237
F-7.521497790306175
F-2.930753392364079
tp151
a(F76.20349907875061
F-3.2864969123398327
F-7.577926971048759
F-2.9327633228715317
tp152
a(F76.70816993713379
F-3.6478855063034037
F-7.653720044798235
F-2.9375215559876517
tp153
a(F77.21330094337463
F-4.092746563617876
F-7.744531163294964
F-2.9455577658182324
tp154
a(F77.71764802932739
F-4.628802866294051
F-7.848415439974372
F-2.9559834833397076
tp155
a(F78.22181510925293
F-5.209652126504263
F-7.95359425402344
F-2.970922813290145
tp156
a(F78.72669291496277
F-5.802656125968803
F-8.051896580081081
F-2.985432085846097
tp157
a(F79.23079705238342
F-6.2664013620805505
F-8.07020082069039
F-2.9546319811029127
tp158
a(F79.73497891426086
F-6.483602719913954
F-8.070395370032795
F-2.9004841950023303
tp159
a(F80.23932695388794
F-6.499860379654412
F-8.07042322332821
F-2.8712799904899966
tp160
a(F80.74326610565186
F-6.500079233384646
F-8.0704391991136
F-2.872941083595166
tp161
a.