(lp0
(F0.0
F0.041108437208049645
F0.0018523647400320283
F-0.001943875724960132
tp1
a(F0.5048820972442627
F0.11912171392978028
F0.0019074314941052047
F0.0018737907416262933
tp2
a(F1.012667179107666
F0.21937329983748136
F0.0019134940050735258
F0.003786190152444461
tp3
a(F1.5170819759368896
F0.3171798593217553
F0.004832503591231939
F0.03995967299774008
tp4
a(F2.0215229988098145
F0.41223903888455266
F0.0104789861120765
F0.14361082741945438
tp5
a(F2.525480031967163
F0.500537658047775
F0.03282759268840208
F0.4016486932459127
tp6
a(F3.0321781635284424
F0.5763653117195359
F0.08587961684639667
F0.8859407905543897
tp7
a(F3.5463640689849854
F0.6173833128700282
F0.16683910283610048
F1.3619036904886246
tp8
a(F4.056849002838135
F0.6160045351574965
F0.26569973798800844
F1.8094778950346915
tp9
a(F4.563002109527588
F0.5858800579651378
F0.34998371604062123
F1.9829133371334515
tp10
a(F5.067852973937988
F0.5455599759346356
F0.4453345108211707
F1.906972949357627
tp11
a(F5.574589014053345
F0.5228737653391952
F0.5394071933361066
F1.6790127328814182
tp12
a(F6.079424142837524
F0.530367461271261
F0.6430647821460317
F1.2190559267239207
tp13
a(F6.587270975112915
F0.5850614303782681
F0.7285684864061215
F0.7321261946026307
tp14
a(F7.0952301025390625
F0.6709342300315344
F0.7814454944986873
F0.3863387955459935
tp15
a(F7.599637985229492
F0.7615242245263338
F0.8118216158342069
F0.2999624824697263
tp16
a(F8.109550952911377
F0.8537659294148523
F0.8407191661897387
F0.302545786538489
tp17
a(F8.614943027496338
F0.9476449703298474
F0.8698927291585256
F0.30154436396335216
tp18
a(F9.123769998550415
F1.0420414831630809
F0.9037120936900226
F0.4549851665525567
tp19
a(F9.628199100494385
F1.1217387289487601
F0.9495103466488979
F0.5333712910101623
tp20
a(F10.137798070907593
F1.203221254914506
F0.9969089381071532
F0.5323513823951767
tp21
a(F10.646219968795776
F1.2848034673179964
F1.0513335506493435
F0.7063050444550172
tp22
a(F11.151700019836426
F1.3493488882171651
F1.121904739042531
F1.0495205857710295
tp23
a(F11.66103196144104
F1.382137665038171
F1.2100223583406098
F1.3530876042981186
tp24
a(F12.170063018798828
F1.3930389098168858
F1.3047729036171791
F1.6360868578150363
tp25
a(F12.674044132232666
F1.371919941681255
F1.3920425691776113
F2.034037052156775
tp26
a(F13.180394172668457
F1.3120606437762141
F1.4659780715380202
F2.4594762496781812
tp27
a(F13.685558080673218
F1.2374604077547253
F1.515320045113456
F2.6124367921173164
tp28
a(F14.189740180969238
F1.1525249326355222
F1.5658048198864796
F2.5996260677828125
tp29
a(F14.695183992385864
F1.0665426387064654
F1.618007502104371
F2.5626578037363044
tp30
a(F15.201987981796265
F0.9863061722705972
F1.6759343432076022
F2.498394397624822
tp31
a(F15.710674047470093
F0.9128679065816392
F1.7306683006517218
F2.500350621117099
tp32
a(F16.21663498878479
F0.829285072249048
F1.7932238801370965
F2.497357999196691
tp33
a(F16.728422164916992
F0.7475304946069377
F1.8547515017035487
F2.4948181212137213
tp34
a(F17.233776092529297
F0.669130864834942
F1.9140615529477152
F2.4923710859013757
tp35
a(F17.747258186340332
F0.5892774508941475
F1.974776254865438
F2.4898692480220697
tp36
a(F18.253100156784058
F0.5092527156469302
F2.0336736447264534
F2.5836750877406764
tp37
a(F18.757941961288452
F0.4260558993407353
F2.076024660185262
F2.7126621272990064
tp38
a(F19.262387990951538
F0.3410477368693738
F2.1155229902320922
F2.702460882746096
tp39
a(F19.767596006393433
F0.24967574684145458
F2.158419325614252
F2.7009226668486153
tp40
a(F20.273293018341064
F0.16267073209182922
F2.1994885326031817
F2.715584028785516
tp41
a(F20.777536153793335
F0.07480385092828529
F2.2316380156472344
F2.9043340442947785
tp42
a(F21.28232717514038
F-0.01792459140702323
F2.2520818493780066
F2.919999014999446
tp43
a(F21.800475120544434
F-0.11837609697914347
F2.2708055398062728
F3.0606207940244987
tp44
a(F22.305796146392822
F-0.2082133123504314
F2.2690042990206467
F-2.9690918085916427
tp45
a(F22.815734148025513
F-0.3051628806575103
F2.235215105275124
F-2.6774050318325737
tp46
a(F23.31985306739807
F-0.38589788201401737
F2.1921146272610232
F-2.65440669564295
tp47
a(F23.82513403892517
F-0.47286148138350653
F2.146300807955131
F-2.6576271593229253
tp48
a(F24.338201999664307
F-0.5616990117468865
F2.0997053068858107
F-2.660201050919743
tp49
a(F24.844253063201904
F-0.6506525976839933
F2.0533377139049382
F-2.662696116589029
tp50
a(F25.350248098373413
F-0.734937872502991
F2.008256869166975
F-2.5869057043969033
tp51
a(F25.85622215270996
F-0.8080789590602533
F1.9547039857949005
F-2.4611164015697735
tp52
a(F26.36099410057068
F-0.8827677909881068
F1.895042645280504
F-2.471825999218427
tp53
a(F26.871148109436035
F-0.9624666856135815
F1.8313243232727163
F-2.4287369545205575
tp54
a(F27.375266075134277
F-1.0311846513249034
F1.7596475094085484
F-2.244516815210481
tp55
a(F27.881010055541992
F-1.087622182819686
F1.6881008731002796
F-2.2468423264577333
tp56
a(F28.393617153167725
F-1.1503856164461475
F1.6095574612137304
F-2.2193085575816056
tp57
a(F28.907552003860474
F-1.1989031989198111
F1.5335019322566084
F-2.019627033522634
tp58
a(F29.415083169937134
F-1.2340159889231088
F1.4433204273323872
F-1.8913985484867633
tp59
a(F29.919677019119263
F-1.2638095177093855
F1.355089902962591
F-1.8873424222424307
tp60
a(F30.428661108016968
F-1.2866109722107626
F1.267155066442313
F-1.708729886117781
tp61
a(F30.93384313583374
F-1.2918442884443446
F1.1744270302201225
F-1.5667371381880093
tp62
a(F31.444873094558716
F-1.2915672256863597
F1.076796096185592
F-1.5737787491875788
tp63
a(F31.95195698738098
F-1.291794799849786
F0.9765884417735645
F-1.5534908466001711
tp64
a(F32.45628595352173
F-1.2836658658600903
F0.8842044857608751
F-1.3735960385728756
tp65
a(F32.96347117424011
F-1.2606172699429368
F0.7869872219760157
F-1.3373895217412524
tp66
a(F33.4754741191864
F-1.2383133921005085
F0.6922896067708861
F-1.340103659690526
tp67
a(F33.983623027801514
F-1.214585867673114
F0.5907475648948325
F-1.3429181091503595
tp68
a(F34.49317002296448
F-1.191562657457492
F0.491052856599601
F-1.3454671854941498
tp69
a(F34.9991409778595
F-1.1687917465592674
F0.391299502810959
F-1.3480110698753982
tp70
a(F35.514371156692505
F-1.1471442637925253
F0.29539607771593046
F-1.3521990049262813
tp71
a(F36.02892518043518
F-1.1300922044899104
F0.19848385804201613
F-1.5046064292012713
tp72
a(F36.53374099731445
F-1.1336747468692365
F0.09935330064843693
F-1.7333891066636473
tp73
a(F37.037830114364624
F-1.1555047815822113
F0.006132490910645992
F-1.83212055798284
tp74
a(F37.546043157577515
F-1.1801543191031414
F-0.08768644231772532
F-1.8279195924737
tp75
a(F38.053277015686035
F-1.2043370350960676
F-0.18802961584113753
F-1.7347625504602078
tp76
a(F38.55718398094177
F-1.2155488734151296
F-0.28623707370267715
F-1.6741485074502664
tp77
a(F39.06304216384888
F-1.2259294200814221
F-0.3819279773758023
F-1.6797104577857904
tp78
a(F39.572142124176025
F-1.236922909813233
F-0.4815826521380323
F-1.6823741066576088
tp79
a(F40.08583211898804
F-1.2469532329072934
F-0.582643776204803
F-1.6068350654000154
tp80
a(F40.59097504615784
F-1.240998967741952
F-0.6744783059857056
F-1.369076466943021
tp81
a(F41.097429037094116
F-1.2073999234803023
F-0.7656324844853368
F-1.0766576894728712
tp82
a(F41.60376214981079
F-1.160609336559231
F-0.8448368282290769
F-1.031370958101751
tp83
a(F42.11625909805298
F-1.1082488566822573
F-0.9327099995989228
F-1.0077404180645408
tp84
a(F42.621119022369385
F-1.0551772487437048
F-1.0037165152608227
F-0.8105024421477701
tp85
a(F43.12692999839783
F-0.9793147055888235
F-1.063175167025623
F-0.4505175227258003
tp86
a(F43.63221716880798
F-0.8890596547192393
F-1.095052539698754
F-0.2708059400042102
tp87
a(F44.13615608215332
F-0.7903550436353955
F-1.1218730061014528
F-0.2151025626019209
tp88
a(F44.641412019729614
F-0.7010774181217572
F-1.1324293090698194
F-0.028769804889805906
tp89
a(F45.14586806297302
F-0.6024922209652377
F-1.1351376646561895
F-0.03573893492186622
tp90
a(F45.652374029159546
F-0.507086788483027
F-1.1385018976826162
F-0.03568916002539557
tp91
a(F46.15715718269348
F-0.41098057527638115
F-1.1420652249457504
F-0.03429648493407029
tp92
a(F46.66295504570007
F-0.31446537507971833
F-1.1403867573857163
F0.1290916283222577
tp93
a(F47.16828799247742
F-0.22357491225871576
F-1.1191916779739708
F0.34528024782762556
tp94
a(F47.67236518859863
F-0.13157054939410154
F-1.081552765293956
F0.39151073803156944
tp95
a(F48.178585052490234
F-0.040205096241749325
F-1.0441123492133884
F0.3925501902226287
tp96
a(F48.68290305137634
F0.049423466440901606
F-1.0021656462999518
F0.510022432851157
tp97
a(F49.19117712974548
F0.13361955764308697
F-0.9537332042269285
F0.5153961589515187
tp98
a(F49.69617199897766
F0.22127209036090734
F-0.9041953038837177
F0.5131585098269991
tp99
a.