(lp0
(F0.0
F0.0006811143277852313
F0.006519561454339925
F-0.007693507850091164
tp1
a(F0.5687370300292969
F0.0006841488090519113
F0.006544121159982421
F-0.007721161012403033
tp2
a(F1.0725550651550293
F0.0006867147862663729
F0.006566744976993997
F-0.007746320849024198
tp3
a(F1.576333999633789
F0.0006893893503519544
F0.006590947529605717
F-0.007772076186424126
tp4
a(F2.079911947250366
F0.0006919724536534697
F0.006612278257927181
F-0.007796448352464676
tp5
a(F2.583014965057373
F0.0006946121734632427
F0.006637423175164914
F-0.007823182329156231
tp6
a(F3.087707996368408
F0.0006972052002361326
F0.006658957625504332
F-0.007847297183561511
tp7
a(F3.5919699668884277
F0.0006998345267216245
F0.006680772065818692
F-0.007872192408331381
tp8
a(F4.096436977386475
F0.0007024864711766693
F0.006702666959903529
F-0.007896694612494216
tp9
a(F4.5998899936676025
F0.0007051187704903324
F0.006726370290094202
F-0.007922790939870897
tp10
a(F5.106091022491455
F0.000707742968566653
F0.006749369588700085
F-0.007947560032213257
tp11
a(F5.610431909561157
F0.0007103850233672691
F0.006771150559036208
F-0.007972472870817272
tp12
a(F6.114300012588501
F0.0007130276568427154
F0.00679448503389364
F-0.00799805783592698
tp13
a(F6.618844985961914
F0.0007155887263462293
F0.006818171124056176
F-0.008023558227115703
tp14
a(F7.127593994140625
F0.0007182918736540686
F0.006839024085819344
F-0.008048004690330443
tp15
a(F7.635263919830322
F0.0007209376440102545
F0.006862055242238247
F-0.008073451691015953
tp16
a(F8.13907790184021
F0.0007234342624509189
F0.006882723524395616
F-0.008097417135322261
tp17
a(F8.642949104309082
F0.0007261316063458031
F0.0069077277909012375
F-0.008123866151919406
tp18
a(F9.148139953613281
F0.0007287659707683435
F0.006929207658119895
F-0.0081483314997402
tp19
a(F9.651742935180664
F0.0007314418169067603
F0.006951429084058349
F-0.008173351695852182
tp20
a(F10.155529022216797
F0.0007339676296855367
F0.006973429776010813
F-0.008198138790524402
tp21
a(F10.658659934997559
F0.0007365875660455354
F0.006997585388736995
F-0.00822366416755896
tp22
a(F11.162625074386597
F0.0007392462158696701
F0.007019437475282977
F-0.008248556703741642
tp23
a(F11.665723085403442
F0.0007419732998451018
F0.007046676036701698
F-0.008276812940414735
tp24
a(F12.170284986495972
F0.0007445406819470667
F0.007066423192675619
F-0.008299537656962062
tp25
a(F12.675622940063477
F0.0007470588529163436
F0.007085427894855789
F-0.008322954068145417
tp26
a(F13.179229974746704
F0.0007497342654941997
F0.007109541192904861
F-0.008348761017238034
tp27
a(F13.68378496170044
F0.0007521463317224971
F0.007127321894431308
F-0.00837179469732254
tp28
a(F14.18758487701416
F0.0007548125777347946
F0.007152189997297293
F-0.00839884694709716
tp29
a(F14.691979885101318
F0.0007574886519935344
F0.007175975358768354
F-0.008424065070405232
tp30
a(F15.197333097457886
F0.0007600801109235496
F0.007195991018828726
F-0.008447712030574952
tp31
a(F15.700831890106201
F0.009332604555816547
F0.0071502925323714646
F-0.007349041507625317
tp32
a(F16.20479702949524
F0.04698092365385958
F0.006903966220861376
F-0.008630542713190432
tp33
a(F16.710017919540405
F0.050558140434433047
F0.006888696825813176
F-0.009690644276535255
tp34
a(F17.213701963424683
F0.06602369127301057
F0.0067746953065545325
F-0.008040200213502477
tp35
a(F17.717567920684814
F0.12466435178212491
F0.006368468968245979
F-0.007810008877351685
tp36
a(F18.221323013305664
F0.23423781933758728
F0.005641292466534801
F-0.0061366992709914955
tp37
a(F18.72507905960083
F0.44577899175641356
F0.004271186490888139
F-0.007788971594264274
tp38
a(F19.22986602783203
F0.7660999927916927
F0.001361301602627566
F-0.011548233146485887
tp39
a(F19.73368501663208
F1.1837618175846012
F-0.004346962461203415
F-0.01661172436301964
tp40
a(F20.23785090446472
F1.694570534695295
F-0.014557581649858577
F-0.02587559169994165
tp41
a(F20.74148392677307
F2.2072829266152687
F-0.030801883965277572
F-0.04003163821685739
tp42
a(F21.245163917541504
F2.668666254936621
F-0.059238590379933065
F-0.13089187971865243
tp43
a(F21.749757051467896
F3.070739833823977
F-0.15387657163552318
F-0.37733675455142685
tp44
a(F22.253851890563965
F3.337787286729067
F-0.3182548116050023
F-0.8344131899094632
tp45
a(F22.75778889656067
F3.460767636542292
F-0.5332920122308877
F-1.3310794121573422
tp46
a(F23.261430025100708
F3.4700673809747307
F-0.7230012515696754
F-1.809288154985479
tp47
a(F23.764939069747925
F3.4328274732481576
F-0.8031419026205656
F-2.3171671266642915
tp48
a(F24.268045902252197
F3.4139857641606612
F-0.8168588724438777
F-2.8087531803891204
tp49
a(F24.772815942764282
F3.3742674561713186
F-0.8229684620174528
F-3.1198493661026343
tp50
a(F25.276669025421143
F3.29866974483547
F-0.8207864278644403
F3.114804628988846
tp51
a(F25.780220985412598
F3.130769327406262
F-0.8165499938760628
F3.1140475431280996
tp52
a.